; Function Attrs: mustprogress uwtable
define dso_local void @_ZNK11cmCMakePath13GetNativePathERNSt7__cxx1112basic_stringIwSt11char_traitsIwESaIwEEE(ptr noundef nonnull align 8 dereferenceable(40) %0, ptr noundef nonnull align 8 dereferenceable(32) %1) local_unnamed_addr #0 align 2 personality ptr @__gxx_personality_v0 {
  %3 = alloca %"class.std::allocator.3", align 1
  %4 = alloca %"class.std::filesystem::__cxx11::path", align 8
  %5 = alloca %"class.std::__cxx11::basic_string.2", align 8
  call void @_ZNSt7__cxx1112basic_stringIcSt11char_traitsIcESaIcEEC1ERKS4_(ptr noundef nonnull align 8 dereferenceable(32) %4, ptr noundef nonnull align 8 dereferenceable(32) %0)
  %6 = getelementptr inbounds i8, ptr %4, i64 32
  %7 = getelementptr inbounds i8, ptr %0, i64 32
  invoke void @_ZNSt10filesystem7__cxx114path5_ListC1ERKS2_(ptr noundef nonnull align 8 dereferenceable(8) %6, ptr noundef nonnull align 8 dereferenceable(8) %7)
          to label %_ZNSt10filesystem7__cxx114pathC2ERKS1_.exit unwind label %8

common.resume:                                    ; preds = %.body, %8
  %common.resume.op = phi { ptr, i32 } [ %9, %8 ], [ %13, %.body ]
  resume { ptr, i32 } %common.resume.op

8:                                                ; preds = %2
  %9 = landingpad { ptr, i32 }
          cleanup
  call void @_ZNSt7__cxx1112basic_stringIcSt11char_traitsIcESaIcEED1Ev(ptr noundef nonnull align 8 dereferenceable(32) %4) #10
  br label %common.resume

_ZNSt10filesystem7__cxx114pathC2ERKS1_.exit:      ; preds = %2
  call void @llvm.lifetime.start.p0(i64 1, ptr nonnull %3)
  call void @_ZNSaIwEC1Ev(ptr noundef nonnull align 1 dereferenceable(1) %3) #10, !noalias !49
  %10 = call { i64, ptr } @_ZNKSt7__cxx1112basic_stringIcSt11char_traitsIcESaIcEEcvSt17basic_string_viewIcS2_EEv(ptr noundef nonnull align 8 dereferenceable(32) %4) #10, !noalias !52
  %11 = extractvalue { i64, ptr } %10, 0
  %12 = extractvalue { i64, ptr } %10, 1
  invoke void @_ZNSt10filesystem7__cxx114path14_S_str_convertIwSt11char_traitsIwESaIwEEENSt7__cxx1112basic_stringIT_T0_T1_EESt17basic_string_viewIcS3_IcEERKSA_(ptr dead_on_unwind nonnull writable sret(%"class.std::__cxx11::basic_string.2") align 8 %5, i64 %11, ptr %12, ptr noundef nonnull align 1 dereferenceable(1) %3)
          to label %14 unwind label %.body

.body:                                            ; preds = %_ZNSt10filesystem7__cxx114pathC2ERKS1_.exit
  %13 = landingpad { ptr, i32 }
          cleanup
  call void @_ZNSaIwED1Ev(ptr noundef nonnull align 1 dereferenceable(1) %3) #10
  call void @_ZNSt10filesystem7__cxx114pathD2Ev(ptr noundef nonnull align 8 dereferenceable(40) %4) #10
  br label %common.resume

14:                                               ; preds = %_ZNSt10filesystem7__cxx114pathC2ERKS1_.exit
  call void @_ZNSaIwED1Ev(ptr noundef nonnull align 1 dereferenceable(1) %3) #10
  call void @llvm.lifetime.end.p0(i64 1, ptr nonnull %3)
  %15 = call noundef nonnull align 8 dereferenceable(32) ptr @_ZNSt7__cxx1112basic_stringIwSt11char_traitsIwESaIwEEaSEOS4_(ptr noundef nonnull align 8 dereferenceable(32) %1, ptr noundef nonnull align 8 dereferenceable(32) %5) #10
  call void @_ZNSt7__cxx1112basic_stringIwSt11char_traitsIwESaIwEED1Ev(ptr noundef nonnull align 8 dereferenceable(32) %5) #10
  %16 = load ptr, ptr %6, align 8
  %.not.i.i.i = icmp eq ptr %16, null
  br i1 %.not.i.i.i, label %_ZNSt10filesystem7__cxx114pathD2Ev.exit, label %17

17:                                               ; preds = %14
  call void @_ZNKSt10filesystem7__cxx114path5_List13_Impl_deleterclEPNS2_5_ImplE(ptr noundef nonnull align 1 dereferenceable(1) %6, ptr noundef nonnull %16) #10
  br label %_ZNSt10filesystem7__cxx114pathD2Ev.exit

_ZNSt10filesystem7__cxx114pathD2Ev.exit:          ; preds = %14, %17
  store ptr null, ptr %6, align 8
  call void @_ZNSt7__cxx1112basic_stringIcSt11char_traitsIcESaIcEED1Ev(ptr noundef nonnull align 8 dereferenceable(32) %4) #10
  ret void
}